target datalayout = "e-m:e-p270:32:32-p271:32:32-p272:64:64-i64:64-i128:128-f80:128-n8:16:32:64-S128"
target triple = "x86_64-pc-linux-gnu"

@.str.12 = private unnamed_addr constant [7 x i8] c"0x%02x\00", align 1
@.str.13 = private unnamed_addr constant [7 x i8] c"0x%04x\00", align 1
@.str.14 = private unnamed_addr constant [7 x i8] c"0x%08x\00", align 1
@.str.15 = private unnamed_addr constant [9 x i8] c"0x%016lx\00", align 1
@.str.16 = private unnamed_addr constant [3 x i8] c"0x\00", align 1
@.str.17 = private unnamed_addr constant [7 x i8] c"%016lx\00", align 1

; Function Attrs: mustprogress nounwind uwtable
define internal void @_ZL22commit_log_print_valueP8_IO_FILEiPKv(ptr noundef %0, i32 noundef %1, ptr noundef %2) #4 {
  %4 = alloca ptr, align 8
  %5 = alloca i32, align 4
  %6 = alloca ptr, align 8
  %7 = alloca ptr, align 8
  %8 = alloca i32, align 4
  store ptr %0, ptr %4, align 8, !tbaa !266
  store i32 %1, ptr %5, align 4, !tbaa !237
  store ptr %2, ptr %6, align 8, !tbaa !156
  %9 = load i32, ptr %5, align 4, !tbaa !237
  switch i32 %9, label %32 [
    i32 8, label %10
    i32 16, label %16
    i32 32, label %22
    i32 64, label %27
  ]

10:                                               ; preds = %3
  %11 = load ptr, ptr %4, align 8, !tbaa !266
  %12 = load ptr, ptr %6, align 8, !tbaa !156
  %13 = load i8, ptr %12, align 1, !tbaa !269
  %14 = zext i8 %13 to i32
  %15 = call i32 (ptr, ptr, ...) @fprintf(ptr noundef %11, ptr noundef @.str.12, i32 noundef %14) #3
  br label %63

16:                                               ; preds = %3
  %17 = load ptr, ptr %4, align 8, !tbaa !266
  %18 = load ptr, ptr %6, align 8, !tbaa !156
  %19 = load i16, ptr %18, align 2, !tbaa !236
  %20 = zext i16 %19 to i32
  %21 = call i32 (ptr, ptr, ...) @fprintf(ptr noundef %17, ptr noundef @.str.13, i32 noundef %20) #3
  br label %63

22:                                               ; preds = %3
  %23 = load ptr, ptr %4, align 8, !tbaa !266
  %24 = load ptr, ptr %6, align 8, !tbaa !156
  %25 = load i32, ptr %24, align 4, !tbaa !237
  %26 = call i32 (ptr, ptr, ...) @fprintf(ptr noundef %23, ptr noundef @.str.14, i32 noundef %25) #3
  br label %63

27:                                               ; preds = %3
  %28 = load ptr, ptr %4, align 8, !tbaa !266
  %29 = load ptr, ptr %6, align 8, !tbaa !156
  %30 = load i64, ptr %29, align 8, !tbaa !140
  %31 = call i32 (ptr, ptr, ...) @fprintf(ptr noundef %28, ptr noundef @.str.15, i64 noundef %30) #3
  br label %63

32:                                               ; preds = %3
  %33 = load i32, ptr %5, align 4, !tbaa !237
  %34 = sub nsw i32 %33, 1
  %35 = load i32, ptr %5, align 4, !tbaa !237
  %36 = and i32 %34, %35
  %37 = icmp eq i32 %36, 0
  br i1 %37, label %38, label %61

38:                                               ; preds = %32
  call void @llvm.lifetime.start.p0(i64 8, ptr %7) #3
  %39 = load ptr, ptr %6, align 8, !tbaa !156
  store ptr %39, ptr %7, align 8, !tbaa !328
  %40 = load ptr, ptr %4, align 8, !tbaa !266
  %41 = call i32 (ptr, ptr, ...) @fprintf(ptr noundef %40, ptr noundef @.str.16) #3
  call void @llvm.lifetime.start.p0(i64 4, ptr %8) #3
  %42 = load i32, ptr %5, align 4, !tbaa !237
  %43 = sdiv i32 %42, 64
  %44 = sub nsw i32 %43, 1
  store i32 %44, ptr %8, align 4, !tbaa !237
  br label %45

45:                                               ; preds = %57, %38
  %46 = load i32, ptr %8, align 4, !tbaa !237
  %47 = icmp sge i32 %46, 0
  br i1 %47, label %49, label %48

48:                                               ; preds = %45
  call void @llvm.lifetime.end.p0(i64 4, ptr %8) #3
  br label %60

49:                                               ; preds = %45
  %50 = load ptr, ptr %4, align 8, !tbaa !266
  %51 = load ptr, ptr %7, align 8, !tbaa !328
  %52 = load i32, ptr %8, align 4, !tbaa !237
  %53 = sext i32 %52 to i64
  %54 = getelementptr inbounds i64, ptr %51, i64 %53
  %55 = load i64, ptr %54, align 8, !tbaa !140
  %56 = call i32 (ptr, ptr, ...) @fprintf(ptr noundef %50, ptr noundef @.str.17, i64 noundef %55) #3
  br label %57

57:                                               ; preds = %49
  %58 = load i32, ptr %8, align 4, !tbaa !237
  %59 = add nsw i32 %58, -1
  store i32 %59, ptr %8, align 4, !tbaa !237
  br label %45, !llvm.loop !329

60:                                               ; preds = %48
  call void @llvm.lifetime.end.p0(i64 8, ptr %7) #3
  br label %62

61:                                               ; preds = %32
  call void @abort() #21
  unreachable

62:                                               ; preds = %60
  br label %63

63:                                               ; preds = %62, %27, %22, %16, %10
  ret void
}