; Function Attrs: mustprogress nofree nounwind uwtable
define internal fastcc void @_ZL22commit_log_print_valueP8_IO_FILEiPKv(ptr noundef captures(none) %0, i32 noundef %1, ptr noundef nonnull readonly captures(none) %2) unnamed_addr #15 {
  %4 = add i32 %1, -8
  %5 = tail call i32 @llvm.fshl.i32(i32 %4, i32 %4, i32 29)
  switch i32 %5, label %20 [
    i32 0, label %6
    i32 1, label %10
    i32 3, label %14
    i32 7, label %17
  ]

6:                                                ; preds = %3
  %7 = load i8, ptr %2, align 1, !tbaa !240
  %8 = zext i8 %7 to i32
  %9 = tail call i32 (ptr, ptr, ...) @fprintf(ptr noundef %0, ptr noundef nonnull @.str.12, i32 noundef %8) #22
  br label %.loopexit

10:                                               ; preds = %3
  %11 = load i16, ptr %2, align 2, !tbaa !221
  %12 = zext i16 %11 to i32
  %13 = tail call i32 (ptr, ptr, ...) @fprintf(ptr noundef %0, ptr noundef nonnull @.str.13, i32 noundef %12) #22
  br label %.loopexit

14:                                               ; preds = %3
  %15 = load i32, ptr %2, align 4, !tbaa !241
  %16 = tail call i32 (ptr, ptr, ...) @fprintf(ptr noundef %0, ptr noundef nonnull @.str.14, i32 noundef %15) #22
  br label %.loopexit

17:                                               ; preds = %3
  %18 = load i64, ptr %2, align 8, !tbaa !163
  %19 = tail call i32 (ptr, ptr, ...) @fprintf(ptr noundef %0, ptr noundef nonnull @.str.15, i64 noundef %18) #22
  br label %.loopexit

20:                                               ; preds = %3
  %21 = tail call range(i32 0, 33) i32 @llvm.ctpop.i32(i32 %1)
  %22 = icmp samesign ult i32 %21, 2
  br i1 %22, label %23, label %32

23:                                               ; preds = %20
  %24 = tail call i64 @fwrite(ptr nonnull @.str.16, i64 2, i64 1, ptr %0)
  %25 = icmp sgt i32 %1, 63
  br i1 %25, label %.lr.ph.preheader, label %.loopexit

.lr.ph.preheader:                                 ; preds = %23
  %26 = lshr i32 %1, 6
  %27 = zext nneg i32 %26 to i64
  br label %.lr.ph

.lr.ph:                                           ; preds = %.lr.ph.preheader, %.lr.ph
  %indvars.iv = phi i64 [ %27, %.lr.ph.preheader ], [ %indvars.iv.next, %.lr.ph ]
  %indvars.iv.next = add nsw i64 %indvars.iv, -1
  %28 = getelementptr inbounds nuw i64, ptr %2, i64 %indvars.iv.next
  %29 = load i64, ptr %28, align 8, !tbaa !163
  %30 = tail call i32 (ptr, ptr, ...) @fprintf(ptr noundef %0, ptr noundef nonnull @.str.17, i64 noundef %29) #22
  %31 = icmp samesign ugt i64 %indvars.iv, 1
  br i1 %31, label %.lr.ph, label %.loopexit, !llvm.loop !242

32:                                               ; preds = %20
  tail call void @abort() #24
  unreachable

.loopexit:                                        ; preds = %.lr.ph, %23, %17, %14, %10, %6
  ret void
}